target datalayout = "e-m:e-p270:32:32-p271:32:32-p272:64:64-i64:64-i128:128-f80:128-n8:16:32:64-S128"
target triple = "x86_64-pc-linux-gnu"

%struct.Agobj_s = type { %struct.Agtag_s, ptr }
%struct.Agtag_s = type { i32, i64 }
%struct.Agraphinfo_t = type { %struct.Agrec_s, ptr, ptr, %struct.boxf, [4 x %struct.pointf_s], i8, i8, i8, i8, i32, double, double, i16, ptr, ptr, ptr, ptr, i32, ptr, ptr, ptr, ptr, i16, i16, i32, ptr, ptr, ptr, ptr, ptr, i32, ptr, ptr, %struct.nlist_t, ptr, ptr, i32, i32, i8, i8, i32, i32, i32, ptr, ptr, ptr, ptr, i8, i8, i8, i8, i8 }
%struct.Agrec_s = type { ptr, ptr }
%struct.boxf = type { %struct.pointf_s, %struct.pointf_s }
%struct.pointf_s = type { double, double }
%struct.nlist_t = type { ptr, i64 }
%struct.Agnodeinfo_t = type { %struct.Agrec_s, ptr, ptr, %struct.pointf_s, double, double, %struct.boxf, double, double, double, double, double, ptr, ptr, ptr, i8, i8, i8, i8, i32, i32, i32, ptr, double, i8, i8, ptr, ptr, i8, i64, i8, i8, i8, ptr, ptr, %struct.elist, %struct.elist, %struct.elist, %struct.elist, %struct.elist, ptr, i32, ptr, i32, i32, double, %struct.elist, %struct.elist, %struct.elist, %struct.elist, ptr, i32, i32, i32, [1 x double] }
%struct.elist = type { ptr, i64 }
%struct.rdata = type { ptr }

@.str = private unnamed_addr constant [6 x i8] c"shape\00", align 1
@.str.1 = private unnamed_addr constant [4 x i8] c"box\00", align 1
@N_shape = external global ptr, align 8
@Ndim = external global i16, align 2
@stderr = external global ptr, align 8
@.str.4 = private unnamed_addr constant [58 x i8] c"integer overflow when trying to allocate %zu * %zu bytes\0A\00", align 1
@.str.5 = private unnamed_addr constant [49 x i8] c"out of memory when trying to allocate %zu bytes\0A\00", align 1
@.str.6 = private unnamed_addr constant [13 x i8] c"Agnodeinfo_t\00", align 1
@.str.7 = private unnamed_addr constant [13 x i8] c"Agedgeinfo_t\00", align 1

; Function Attrs: nounwind uwtable
define internal void @patchwork_init_edge(ptr noundef %0) #0 {
  %2 = alloca ptr, align 8
  store ptr %0, ptr %2, align 8, !tbaa !45
  %3 = load ptr, ptr %2, align 8, !tbaa !45
  %4 = call ptr @agbindrec(ptr noundef %3, ptr noundef @.str.7, i32 noundef 472, i32 noundef 1)
  ret void
}

; Function Attrs: nounwind uwtable
define internal void @patchwork_init_node(ptr noundef %0) #0 {
  %2 = alloca ptr, align 8
  store ptr %0, ptr %2, align 8, !tbaa !37
  %3 = load ptr, ptr %2, align 8, !tbaa !37
  %4 = call i32 @agset(ptr noundef %3, ptr noundef @.str, ptr noundef @.str.1)
  ret void
}

; Function Attrs: inlinehint nounwind uwtable
define internal ptr @gv_calloc(i64 noundef %0, i64 noundef %1) #5 {
  %3 = alloca i64, align 8
  %4 = alloca i64, align 8
  %5 = alloca ptr, align 8
  store i64 %0, ptr %3, align 8, !tbaa !63
  store i64 %1, ptr %4, align 8, !tbaa !63
  %6 = load i64, ptr %3, align 8, !tbaa !63
  %7 = icmp ugt i64 %6, 0
  br i1 %7, label %8, label %18

8:                                                ; preds = %2
  %9 = load i64, ptr %3, align 8, !tbaa !63
  %10 = udiv i64 -1, %9
  %11 = load i64, ptr %4, align 8, !tbaa !63
  %12 = icmp ult i64 %10, %11
  br i1 %12, label %13, label %18

13:                                               ; preds = %8
  %14 = load ptr, ptr @stderr, align 8, !tbaa !56
  %15 = load i64, ptr %3, align 8, !tbaa !63
  %16 = load i64, ptr %4, align 8, !tbaa !63
  %17 = call i32 (ptr, ptr, ...) @fprintf(ptr noundef %14, ptr noundef @.str.4, i64 noundef %15, i64 noundef %16) #11
  call void @graphviz_exit(i32 noundef 1) #12
  unreachable

18:                                               ; preds = %8, %2
  call void @llvm.lifetime.start.p0(i64 8, ptr %5) #11
  %19 = load i64, ptr %3, align 8, !tbaa !63
  %20 = load i64, ptr %4, align 8, !tbaa !63
  %21 = call noalias ptr @calloc(i64 noundef %19, i64 noundef %20) #15
  store ptr %21, ptr %5, align 8, !tbaa !51
  %22 = load i64, ptr %3, align 8, !tbaa !63
  %23 = icmp ugt i64 %22, 0
  br i1 %23, label %24, label %36

24:                                               ; preds = %18
  %25 = load i64, ptr %4, align 8, !tbaa !63
  %26 = icmp ugt i64 %25, 0
  br i1 %26, label %27, label %36

27:                                               ; preds = %24
  %28 = load ptr, ptr %5, align 8, !tbaa !51
  %29 = icmp eq ptr %28, null
  br i1 %29, label %30, label %36

30:                                               ; preds = %27
  %31 = load ptr, ptr @stderr, align 8, !tbaa !56
  %32 = load i64, ptr %3, align 8, !tbaa !63
  %33 = load i64, ptr %4, align 8, !tbaa !63
  %34 = mul i64 %32, %33
  %35 = call i32 (ptr, ptr, ...) @fprintf(ptr noundef %31, ptr noundef @.str.5, i64 noundef %34) #11
  call void @graphviz_exit(i32 noundef 1) #12
  unreachable

36:                                               ; preds = %27, %24, %18
  %37 = load ptr, ptr %5, align 8, !tbaa !51
  call void @llvm.lifetime.end.p0(i64 8, ptr %5) #11
  ret ptr %37
}

; Function Attrs: nounwind uwtable
define internal void @patchwork_init_node_edge(ptr noundef %0) #0 {
  %2 = alloca ptr, align 8
  %3 = alloca ptr, align 8
  %4 = alloca ptr, align 8
  %5 = alloca i32, align 4
  %6 = alloca ptr, align 8
  store ptr %0, ptr %2, align 8, !tbaa !3
  call void @llvm.lifetime.start.p0(i64 8, ptr %3) #11
  call void @llvm.lifetime.start.p0(i64 8, ptr %4) #11
  call void @llvm.lifetime.start.p0(i64 4, ptr %5) #11
  store i32 0, ptr %5, align 4, !tbaa !53
  call void @llvm.lifetime.start.p0(i64 8, ptr %6) #11
  %7 = load ptr, ptr %2, align 8, !tbaa !3
  %8 = call i32 @agnnodes(ptr noundef %7)
  %9 = sext i32 %8 to i64
  %10 = call ptr @gv_calloc(i64 noundef %9, i64 noundef 8)
  store ptr %10, ptr %6, align 8, !tbaa !51
  %11 = load ptr, ptr %2, align 8, !tbaa !3
  %12 = call i32 @agnnodes(ptr noundef %11)
  %13 = add nsw i32 %12, 1
  %14 = sext i32 %13 to i64
  %15 = call ptr @gv_calloc(i64 noundef %14, i64 noundef 8)
  %16 = load ptr, ptr %2, align 8, !tbaa !3
  %17 = getelementptr inbounds nuw %struct.Agobj_s, ptr %16, i32 0, i32 1
  %18 = load ptr, ptr %17, align 8, !tbaa !8
  %19 = getelementptr inbounds nuw %struct.Agraphinfo_t, ptr %18, i32 0, i32 16
  store ptr %15, ptr %19, align 8, !tbaa !49
  %20 = load ptr, ptr %2, align 8, !tbaa !3
  %21 = call ptr @agfstnode(ptr noundef %20)
  store ptr %21, ptr %3, align 8, !tbaa !37
  br label %22

22:                                               ; preds = %60, %1
  %23 = load ptr, ptr %3, align 8, !tbaa !37
  %24 = icmp ne ptr %23, null
  br i1 %24, label %25, label %64

25:                                               ; preds = %22
  %26 = load ptr, ptr %3, align 8, !tbaa !37
  %27 = call ptr @agbindrec(ptr noundef %26, ptr noundef @.str.6, i32 noundef 472, i32 noundef 1)
  %28 = load ptr, ptr %6, align 8, !tbaa !51
  %29 = load i32, ptr %5, align 4, !tbaa !53
  %30 = sext i32 %29 to i64
  %31 = getelementptr inbounds %struct.rdata, ptr %28, i64 %30
  %32 = load ptr, ptr %3, align 8, !tbaa !37
  %33 = getelementptr inbounds nuw %struct.Agobj_s, ptr %32, i32 0, i32 1
  %34 = load ptr, ptr %33, align 8, !tbaa !8
  %35 = getelementptr inbounds nuw %struct.Agnodeinfo_t, ptr %34, i32 0, i32 14
  store ptr %31, ptr %35, align 8, !tbaa !38
  %36 = load ptr, ptr %3, align 8, !tbaa !37
  %37 = load ptr, ptr %2, align 8, !tbaa !3
  %38 = getelementptr inbounds nuw %struct.Agobj_s, ptr %37, i32 0, i32 1
  %39 = load ptr, ptr %38, align 8, !tbaa !8
  %40 = getelementptr inbounds nuw %struct.Agraphinfo_t, ptr %39, i32 0, i32 16
  %41 = load ptr, ptr %40, align 8, !tbaa !49
  %42 = load i32, ptr %5, align 4, !tbaa !53
  %43 = add nsw i32 %42, 1
  store i32 %43, ptr %5, align 4, !tbaa !53
  %44 = sext i32 %42 to i64
  %45 = getelementptr inbounds ptr, ptr %41, i64 %44
  store ptr %36, ptr %45, align 8, !tbaa !37
  %46 = load ptr, ptr %3, align 8, !tbaa !37
  call void @patchwork_init_node(ptr noundef %46)
  %47 = load ptr, ptr %2, align 8, !tbaa !3
  %48 = load ptr, ptr %3, align 8, !tbaa !37
  %49 = call ptr @agfstout(ptr noundef %47, ptr noundef %48)
  store ptr %49, ptr %4, align 8, !tbaa !45
  br label %50

50:                                               ; preds = %55, %25
  %51 = load ptr, ptr %4, align 8, !tbaa !45
  %52 = icmp ne ptr %51, null
  br i1 %52, label %53, label %59

53:                                               ; preds = %50
  %54 = load ptr, ptr %4, align 8, !tbaa !45
  call void @patchwork_init_edge(ptr noundef %54)
  br label %55

55:                                               ; preds = %53
  %56 = load ptr, ptr %2, align 8, !tbaa !3
  %57 = load ptr, ptr %4, align 8, !tbaa !45
  %58 = call ptr @agnxtout(ptr noundef %56, ptr noundef %57)
  store ptr %58, ptr %4, align 8, !tbaa !45
  br label %50, !llvm.loop !54

59:                                               ; preds = %50
  br label %60

60:                                               ; preds = %59
  %61 = load ptr, ptr %2, align 8, !tbaa !3
  %62 = load ptr, ptr %3, align 8, !tbaa !37
  %63 = call ptr @agnxtnode(ptr noundef %61, ptr noundef %62)
  store ptr %63, ptr %3, align 8, !tbaa !37
  br label %22, !llvm.loop !55

64:                                               ; preds = %22
  call void @llvm.lifetime.end.p0(i64 8, ptr %6) #11
  call void @llvm.lifetime.end.p0(i64 4, ptr %5) #11
  call void @llvm.lifetime.end.p0(i64 8, ptr %4) #11
  call void @llvm.lifetime.end.p0(i64 8, ptr %3) #11
  ret void
}

; Function Attrs: nounwind uwtable
define internal void @patchwork_init_graph(ptr noundef %0) #0 {
  %2 = alloca ptr, align 8
  store ptr %0, ptr %2, align 8, !tbaa !3
  %3 = load ptr, ptr %2, align 8, !tbaa !3
  %4 = call ptr @agattr(ptr noundef %3, i32 noundef 1, ptr noundef @.str, ptr noundef @.str.1)
  store ptr %4, ptr @N_shape, align 8, !tbaa !33
  %5 = load ptr, ptr %2, align 8, !tbaa !3
  call void @setEdgeType(ptr noundef %5, i32 noundef 2)
  %6 = load ptr, ptr %2, align 8, !tbaa !3
  %7 = getelementptr inbounds nuw %struct.Agobj_s, ptr %6, i32 0, i32 1
  %8 = load ptr, ptr %7, align 8, !tbaa !8
  %9 = getelementptr inbounds nuw %struct.Agraphinfo_t, ptr %8, i32 0, i32 22
  store i16 2, ptr %9, align 8, !tbaa !35
  store i16 2, ptr @Ndim, align 2, !tbaa !36
  %10 = load ptr, ptr %2, align 8, !tbaa !3
  %11 = load ptr, ptr %2, align 8, !tbaa !3
  call void @mkClusters(ptr noundef %10, ptr noundef null, ptr noundef %11)
  %12 = load ptr, ptr %2, align 8, !tbaa !3
  call void @patchwork_init_node_edge(ptr noundef %12)
  ret void
}

; Function Attrs: nounwind uwtable
define void @patchwork_layout(ptr noundef %0) #0 {
  %2 = alloca ptr, align 8
  store ptr %0, ptr %2, align 8, !tbaa !3
  %3 = load ptr, ptr %2, align 8, !tbaa !3
  call void @patchwork_init_graph(ptr noundef %3)
  %4 = load ptr, ptr %2, align 8, !tbaa !3
  %5 = call i32 @agnnodes(ptr noundef %4)
  %6 = icmp eq i32 %5, 0
  br i1 %6, label %7, label %15

7:                                                ; preds = %1
  %8 = load ptr, ptr %2, align 8, !tbaa !3
  %9 = getelementptr inbounds nuw %struct.Agobj_s, ptr %8, i32 0, i32 1
  %10 = load ptr, ptr %9, align 8, !tbaa !8
  %11 = getelementptr inbounds nuw %struct.Agraphinfo_t, ptr %10, i32 0, i32 24
  %12 = load i32, ptr %11, align 4, !tbaa !14
  %13 = icmp eq i32 %12, 0
  br i1 %13, label %14, label %15

14:                                               ; preds = %7
  br label %18

15:                                               ; preds = %7, %1
  %16 = load ptr, ptr %2, align 8, !tbaa !3
  call void @patchworkLayout(ptr noundef %16)
  %17 = load ptr, ptr %2, align 8, !tbaa !3
  call void @dotneato_postprocess(ptr noundef %17)
  br label %18

18:                                               ; preds = %15, %14
  ret void
}