; Function Attrs: nounwind uwtable
define void @patchwork_layout(ptr noundef %0) local_unnamed_addr #0 {
  %2 = tail call ptr @agattr(ptr noundef %0, i32 noundef 1, ptr noundef nonnull @.str, ptr noundef nonnull @.str.1) #13
  store ptr %2, ptr @N_shape, align 8, !tbaa !3
  tail call void @setEdgeType(ptr noundef %0, i32 noundef 2) #13
  %3 = getelementptr inbounds nuw i8, ptr %0, i64 16
  %4 = load ptr, ptr %3, align 8, !tbaa !8
  %5 = getelementptr inbounds nuw i8, ptr %4, i64 232
  store i16 2, ptr %5, align 8, !tbaa !14
  store i16 2, ptr @Ndim, align 2, !tbaa !34
  tail call fastcc void @mkClusters(ptr noundef %0, ptr noundef null)
  %6 = tail call i32 @agnnodes(ptr noundef %0) #13
  %7 = sext i32 %6 to i64
  %mul.ov.i.i.i = icmp slt i32 %6, 0
  br i1 %mul.ov.i.i.i, label %8, label %11

8:                                                ; preds = %1
  %9 = load ptr, ptr @stderr, align 8, !tbaa !35
  %10 = tail call i32 (ptr, ptr, ...) @fprintf(ptr noundef %9, ptr noundef nonnull @.str.4, i64 noundef range(i64 -2147483648, 2147483648) %7, i64 noundef 8) #14
  tail call fastcc void @graphviz_exit() #15
  unreachable

11:                                               ; preds = %1
  %12 = icmp ne i32 %6, 0
  %13 = tail call noalias ptr @calloc(i64 noundef range(i64 -2147483648, 2147483648) %7, i64 noundef 8) #16
  %14 = icmp eq ptr %13, null
  %or.cond3.i.i.i = and i1 %12, %14
  br i1 %or.cond3.i.i.i, label %15, label %gv_calloc.exit.i.i

15:                                               ; preds = %11
  %16 = load ptr, ptr @stderr, align 8, !tbaa !35
  %17 = shl nuw nsw i64 %7, 3
  %18 = tail call i32 (ptr, ptr, ...) @fprintf(ptr noundef %16, ptr noundef nonnull @.str.5, i64 noundef %17) #14
  tail call fastcc void @graphviz_exit() #15
  unreachable

gv_calloc.exit.i.i:                               ; preds = %11
  %19 = tail call i32 @agnnodes(ptr noundef nonnull %0) #13
  %20 = add nsw i32 %19, 1
  %21 = sext i32 %20 to i64
  %mul.ov.i23.i.i = icmp slt i32 %19, -1
  br i1 %mul.ov.i23.i.i, label %22, label %25

22:                                               ; preds = %gv_calloc.exit.i.i
  %23 = load ptr, ptr @stderr, align 8, !tbaa !35
  %24 = tail call i32 (ptr, ptr, ...) @fprintf(ptr noundef %23, ptr noundef nonnull @.str.4, i64 noundef range(i64 -2147483648, 2147483648) %21, i64 noundef 8) #14
  tail call fastcc void @graphviz_exit() #15
  unreachable

25:                                               ; preds = %gv_calloc.exit.i.i
  %26 = icmp ne i32 %20, 0
  %27 = tail call noalias ptr @calloc(i64 noundef range(i64 -2147483648, 2147483648) %21, i64 noundef 8) #16
  %28 = icmp eq ptr %27, null
  %or.cond3.i24.i.i = and i1 %26, %28
  br i1 %or.cond3.i24.i.i, label %29, label %gv_calloc.exit25.i.i

29:                                               ; preds = %25
  %30 = load ptr, ptr @stderr, align 8, !tbaa !35
  %31 = shl nuw nsw i64 %21, 3
  %32 = tail call i32 (ptr, ptr, ...) @fprintf(ptr noundef %30, ptr noundef nonnull @.str.5, i64 noundef %31) #14
  tail call fastcc void @graphviz_exit() #15
  unreachable

gv_calloc.exit25.i.i:                             ; preds = %25
  %33 = load ptr, ptr %3, align 8, !tbaa !8
  %34 = getelementptr inbounds nuw i8, ptr %33, i64 184
  store ptr %27, ptr %34, align 8, !tbaa !37
  %35 = tail call ptr @agfstnode(ptr noundef nonnull %0) #13
  %.not28.i.i = icmp eq ptr %35, null
  br i1 %.not28.i.i, label %patchwork_init_graph.exit, label %.lr.ph31.i.i

.lr.ph31.i.i:                                     ; preds = %gv_calloc.exit25.i.i, %._crit_edge.i.i
  %indvars.iv.i.i = phi i64 [ %indvars.iv.next.i.i, %._crit_edge.i.i ], [ 0, %gv_calloc.exit25.i.i ]
  %.030.i.i = phi ptr [ %49, %._crit_edge.i.i ], [ %35, %gv_calloc.exit25.i.i ]
  %36 = tail call ptr @agbindrec(ptr noundef nonnull %.030.i.i, ptr noundef nonnull @.str.6, i32 noundef 472, i32 noundef 1) #13
  %37 = getelementptr inbounds nuw %struct.rdata, ptr %13, i64 %indvars.iv.i.i
  %38 = getelementptr inbounds nuw i8, ptr %.030.i.i, i64 16
  %39 = load ptr, ptr %38, align 8, !tbaa !8
  %40 = getelementptr inbounds nuw i8, ptr %39, i64 152
  store ptr %37, ptr %40, align 8, !tbaa !38
  %41 = load ptr, ptr %3, align 8, !tbaa !8
  %42 = getelementptr inbounds nuw i8, ptr %41, i64 184
  %43 = load ptr, ptr %42, align 8, !tbaa !37
  %indvars.iv.next.i.i = add nuw nsw i64 %indvars.iv.i.i, 1
  %44 = getelementptr inbounds nuw ptr, ptr %43, i64 %indvars.iv.i.i
  store ptr %.030.i.i, ptr %44, align 8, !tbaa !45
  %45 = tail call i32 @agset(ptr noundef nonnull %.030.i.i, ptr noundef nonnull @.str, ptr noundef nonnull @.str.1) #13
  %46 = tail call ptr @agfstout(ptr noundef nonnull %0, ptr noundef nonnull %.030.i.i) #13
  %.not2226.i.i = icmp eq ptr %46, null
  br i1 %.not2226.i.i, label %._crit_edge.i.i, label %.lr.ph.i.i

.lr.ph.i.i:                                       ; preds = %.lr.ph31.i.i, %.lr.ph.i.i
  %.02127.i.i = phi ptr [ %48, %.lr.ph.i.i ], [ %46, %.lr.ph31.i.i ]
  %47 = tail call ptr @agbindrec(ptr noundef nonnull %.02127.i.i, ptr noundef nonnull @.str.7, i32 noundef 472, i32 noundef 1) #13
  %48 = tail call ptr @agnxtout(ptr noundef nonnull %0, ptr noundef nonnull %.02127.i.i) #13
  %.not22.i.i = icmp eq ptr %48, null
  br i1 %.not22.i.i, label %._crit_edge.i.i, label %.lr.ph.i.i, !llvm.loop !46

._crit_edge.i.i:                                  ; preds = %.lr.ph.i.i, %.lr.ph31.i.i
  %49 = tail call ptr @agnxtnode(ptr noundef nonnull %0, ptr noundef nonnull %.030.i.i) #13
  %.not.i.i = icmp eq ptr %49, null
  br i1 %.not.i.i, label %patchwork_init_graph.exit, label %.lr.ph31.i.i, !llvm.loop !48

patchwork_init_graph.exit:                        ; preds = %._crit_edge.i.i, %gv_calloc.exit25.i.i
  %50 = tail call i32 @agnnodes(ptr noundef nonnull %0) #13
  %51 = icmp eq i32 %50, 0
  br i1 %51, label %52, label %57

52:                                               ; preds = %patchwork_init_graph.exit
  %53 = load ptr, ptr %3, align 8, !tbaa !8
  %54 = getelementptr inbounds nuw i8, ptr %53, i64 236
  %55 = load i32, ptr %54, align 4, !tbaa !49
  %56 = icmp eq i32 %55, 0
  br i1 %56, label %58, label %57

57:                                               ; preds = %52, %patchwork_init_graph.exit
  tail call void @patchworkLayout(ptr noundef nonnull %0) #13
  tail call void @dotneato_postprocess(ptr noundef nonnull %0) #13
  br label %58

58:                                               ; preds = %52, %57
  ret void
}